target datalayout = "e-m:e-p270:32:32-p271:32:32-p272:64:64-i64:64-i128:128-f80:128-n8:16:32:64-S128"
target triple = "x86_64-pc-linux-gnu"

%struct.DumpSignalInformation = type { ptr, ptr, i8, i8 }
%struct._archiveHandle = type { %struct.Archive, i32, ptr, ptr, i64, i64, i32, %struct.sqlparseInfo, i64, i32, ptr, i64, i64, i64, ptr, ptr, ptr, ptr, ptr, ptr, ptr, ptr, ptr, ptr, ptr, ptr, ptr, ptr, ptr, ptr, ptr, ptr, ptr, ptr, ptr, ptr, ptr, ptr, ptr, ptr, ptr, ptr, ptr, ptr, i32, i32, i8, i32, i8, i32, ptr, ptr, ptr, ptr, i32, i32, ptr, ptr, ptr, %struct.pg_compress_specification, i8, i32, i32, ptr, ptr, ptr, ptr, ptr, i32, ptr, i64, i64, i32, i32, i32, i32, ptr, ptr }
%struct.Archive = type { ptr, ptr, i32, ptr, i32, i8, i32, i32, i32, ptr, i32, i8, ptr, ptr, i8, i32, ptr }
%struct.sqlparseInfo = type { i32, i8, ptr }
%struct.pg_compress_specification = type { i32, i32, i32, i32, i8, ptr }

@signal_info = internal global %struct.DumpSignalInformation zeroinitializer, align 8

; Function Attrs: nounwind uwtable
define internal void @set_cancel_handler() #0 {
  %1 = load volatile i8, ptr getelementptr inbounds nuw (%struct.DumpSignalInformation, ptr @signal_info, i32 0, i32 2), align 8, !range !4, !noundef !5
  %2 = trunc i8 %1 to i1
  br i1 %2, label %4, label %3

3:                                                ; preds = %0
  store volatile i8 1, ptr getelementptr inbounds nuw (%struct.DumpSignalInformation, ptr @signal_info, i32 0, i32 2), align 8
  call void @pqsignal_fe(i32 noundef 2, ptr noundef @sigTermHandler)
  call void @pqsignal_fe(i32 noundef 15, ptr noundef @sigTermHandler)
  call void @pqsignal_fe(i32 noundef 3, ptr noundef @sigTermHandler)
  br label %4

4:                                                ; preds = %3, %0
  ret void
}

; Function Attrs: nounwind uwtable
define dso_local void @set_archive_cancel_info(ptr noundef %0, ptr noundef %1) #0 {
  %3 = alloca ptr, align 8
  %4 = alloca ptr, align 8
  %5 = alloca ptr, align 8
  store ptr %0, ptr %3, align 8
  store ptr %1, ptr %4, align 8
  call void @llvm.lifetime.start.p0(i64 8, ptr %5) #10
  call void @set_cancel_handler()
  %6 = load ptr, ptr %3, align 8
  %7 = getelementptr inbounds nuw %struct._archiveHandle, ptr %6, i32 0, i32 43
  %8 = load volatile ptr, ptr %7, align 8
  store ptr %8, ptr %5, align 8
  %9 = load ptr, ptr %3, align 8
  %10 = getelementptr inbounds nuw %struct._archiveHandle, ptr %9, i32 0, i32 43
  store volatile ptr null, ptr %10, align 8
  %11 = load ptr, ptr %5, align 8
  %12 = icmp ne ptr %11, null
  br i1 %12, label %13, label %15

13:                                               ; preds = %2
  %14 = load ptr, ptr %5, align 8
  call void @PQfreeCancel(ptr noundef %14)
  br label %15

15:                                               ; preds = %13, %2
  %16 = load ptr, ptr %4, align 8
  %17 = icmp ne ptr %16, null
  br i1 %17, label %18, label %23

18:                                               ; preds = %15
  %19 = load ptr, ptr %4, align 8
  %20 = call ptr @PQgetCancel(ptr noundef %19)
  %21 = load ptr, ptr %3, align 8
  %22 = getelementptr inbounds nuw %struct._archiveHandle, ptr %21, i32 0, i32 43
  store volatile ptr %20, ptr %22, align 8
  br label %23

23:                                               ; preds = %18, %15
  %24 = load ptr, ptr %3, align 8
  store volatile ptr %24, ptr @signal_info, align 8
  call void @llvm.lifetime.end.p0(i64 8, ptr %5) #10
  ret void
}