; Function Attrs: nounwind uwtable
define dso_local void @set_archive_cancel_info(ptr noundef %0, ptr noundef %1) local_unnamed_addr #1 {
  %3 = load volatile i8, ptr getelementptr inbounds nuw (i8, ptr @signal_info, i64 16), align 8, !range !11, !noundef !12
  %4 = trunc nuw i8 %3 to i1
  br i1 %4, label %set_cancel_handler.exit, label %5

5:                                                ; preds = %2
  store volatile i8 1, ptr getelementptr inbounds nuw (i8, ptr @signal_info, i64 16), align 8
  tail call void @pqsignal_fe(i32 noundef 2, ptr noundef nonnull @sigTermHandler) #18
  tail call void @pqsignal_fe(i32 noundef 15, ptr noundef nonnull @sigTermHandler) #18
  tail call void @pqsignal_fe(i32 noundef 3, ptr noundef nonnull @sigTermHandler) #18
  br label %set_cancel_handler.exit

set_cancel_handler.exit:                          ; preds = %2, %5
  %6 = getelementptr inbounds nuw i8, ptr %0, i64 448
  %7 = load volatile ptr, ptr %6, align 8
  store volatile ptr null, ptr %6, align 8
  %.not = icmp eq ptr %7, null
  br i1 %.not, label %9, label %8

8:                                                ; preds = %set_cancel_handler.exit
  tail call void @PQfreeCancel(ptr noundef nonnull %7) #18
  br label %9

9:                                                ; preds = %8, %set_cancel_handler.exit
  %.not9 = icmp eq ptr %1, null
  br i1 %.not9, label %12, label %10

10:                                               ; preds = %9
  %11 = tail call ptr @PQgetCancel(ptr noundef nonnull %1) #18
  store volatile ptr %11, ptr %6, align 8
  br label %12

12:                                               ; preds = %10, %9
  store volatile ptr %0, ptr @signal_info, align 8
  ret void
}